; ModuleID = '44/1270.c'
source_filename = "44/1270.c"
target datalayout = "e-m:e-p270:32:32-p271:32:32-p272:64:64-i64:64-f80:128-n8:16:32:64-S128"
target triple = "x86_64-pc-linux-gnu"

@.str = private unnamed_addr constant [3 x i8] c"%d\00", align 1
@.str.1 = private unnamed_addr constant [4 x i8] c"%d\0A\00", align 1

; Function Attrs: noinline nounwind uwtable
define dso_local i32 @invert(i32 %0) #0 {
  %2 = alloca i32, align 4
  %3 = alloca i32, align 4
  %4 = alloca i32, align 4
  %5 = alloca i32, align 4
  %6 = alloca i32, align 4
  store i32 %0, i32* %2, align 4
  store i32 0, i32* %4, align 4
  %7 = load i32, i32* %2, align 4
  %8 = icmp sge i32 %7, 0
  br i1 %8, label %9, label %11

9:                                                ; preds = %1
  %10 = load i32, i32* %2, align 4
  store i32 %10, i32* %3, align 4
  br label %11

11:                                               ; preds = %9, %1
  %12 = load i32, i32* %2, align 4
  %13 = icmp slt i32 %12, 0
  br i1 %13, label %14, label %17

14:                                               ; preds = %11
  %15 = load i32, i32* %2, align 4
  %16 = sub nsw i32 0, %15
  store i32 %16, i32* %3, align 4
  br label %17

17:                                               ; preds = %14, %11
  br label %18

18:                                               ; preds = %21, %17
  %19 = load i32, i32* %3, align 4
  %20 = icmp sgt i32 %19, 0
  br i1 %20, label %21, label %29

21:                                               ; preds = %18
  %22 = load i32, i32* %4, align 4
  %23 = mul nsw i32 %22, 10
  %24 = load i32, i32* %3, align 4
  %25 = srem i32 %24, 10
  %26 = add nsw i32 %23, %25
  store i32 %26, i32* %4, align 4
  %27 = load i32, i32* %3, align 4
  %28 = sdiv i32 %27, 10
  store i32 %28, i32* %3, align 4
  br label %18

29:                                               ; preds = %18
  %30 = load i32, i32* %2, align 4
  %31 = icmp sge i32 %30, 0
  br i1 %31, label %32, label %34

32:                                               ; preds = %29
  %33 = load i32, i32* %4, align 4
  store i32 %33, i32* %4, align 4
  br label %34

34:                                               ; preds = %32, %29
  %35 = load i32, i32* %2, align 4
  %36 = icmp slt i32 %35, 0
  br i1 %36, label %37, label %40

37:                                               ; preds = %34
  %38 = load i32, i32* %4, align 4
  %39 = sub nsw i32 0, %38
  store i32 %39, i32* %4, align 4
  br label %40

40:                                               ; preds = %37, %34
  %41 = load i32, i32* %4, align 4
  ret i32 %41
}

; Function Attrs: noinline nounwind uwtable
define dso_local void @main() #0 {
  %1 = alloca i32, align 4
  %2 = alloca [6 x i32], align 16
  store i32 0, i32* %1, align 4
  br label %3

3:                                                ; preds = %11, %0
  %4 = load i32, i32* %1, align 4
  %5 = icmp slt i32 %4, 6
  br i1 %5, label %6, label %14

6:                                                ; preds = %3
  %7 = load i32, i32* %1, align 4
  %8 = sext i32 %7 to i64
  %9 = getelementptr inbounds [6 x i32], [6 x i32]* %2, i64 0, i64 %8
  %10 = call i32 (i8*, ...) @__isoc99_scanf(i8* getelementptr inbounds ([3 x i8], [3 x i8]* @.str, i64 0, i64 0), i32* %9)
  br label %11

11:                                               ; preds = %6
  %12 = load i32, i32* %1, align 4
  %13 = add nsw i32 %12, 1
  store i32 %13, i32* %1, align 4
  br label %3

14:                                               ; preds = %3
  store i32 0, i32* %1, align 4
  br label %15

15:                                               ; preds = %25, %14
  %16 = load i32, i32* %1, align 4
  %17 = icmp slt i32 %16, 6
  br i1 %17, label %18, label %28

18:                                               ; preds = %15
  %19 = load i32, i32* %1, align 4
  %20 = sext i32 %19 to i64
  %21 = getelementptr inbounds [6 x i32], [6 x i32]* %2, i64 0, i64 %20
  %22 = load i32, i32* %21, align 4
  %23 = call i32 @invert(i32 %22)
  %24 = call i32 (i8*, ...) @printf(i8* getelementptr inbounds ([4 x i8], [4 x i8]* @.str.1, i64 0, i64 0), i32 %23)
  br label %25

25:                                               ; preds = %18
  %26 = load i32, i32* %1, align 4
  %27 = add nsw i32 %26, 1
  store i32 %27, i32* %1, align 4
  br label %15

28:                                               ; preds = %15
  ret void
}

declare dso_local i32 @__isoc99_scanf(i8*, ...) #1

declare dso_local i32 @printf(i8*, ...) #1


!llvm.module.flags = !{!0}
!llvm.ident = !{!1}

!0 = !{i32 1, !"wchar_size", i32 4}
!1 = !{!"clang version 10.0.0-4ubuntu1 "}
